target datalayout = "e-m:e-p270:32:32-p271:32:32-p272:64:64-i64:64-i128:128-f80:128-n8:16:32:64-S128"
target triple = "x86_64-pc-linux-gnu"

%struct.ossl_ex_data_global_st = type { ptr, [18 x %struct.ex_callbacks_st] }
%struct.ex_callbacks_st = type { ptr }
%struct.ex_callback_st = type { i64, ptr, i32, ptr, ptr, ptr }
%struct.crypto_ex_data_st = type { ptr, ptr }
%struct.ex_callback_entry = type { ptr, i32 }

@.str = private unnamed_addr constant [28 x i8] c"../openssl/crypto/ex_data.c\00", align 1
@__func__.get_and_lock = private unnamed_addr constant [13 x i8] c"get_and_lock\00", align 1

; Function Attrs: inlinehint nounwind uwtable
define internal ptr @ossl_check_const_void_sk_type(ptr noundef %0) #3 {
  %2 = alloca ptr, align 8
  store ptr %0, ptr %2, align 8, !tbaa !46
  %3 = load ptr, ptr %2, align 8, !tbaa !46
  ret ptr %3
}

; Function Attrs: inlinehint nounwind uwtable
define internal ptr @ossl_check_void_sk_type(ptr noundef %0) #3 {
  %2 = alloca ptr, align 8
  store ptr %0, ptr %2, align 8, !tbaa !46
  %3 = load ptr, ptr %2, align 8, !tbaa !46
  ret ptr %3
}

; Function Attrs: nounwind uwtable
define ptr @CRYPTO_get_ex_data(ptr noundef %0, i32 noundef %1) #0 {
  %3 = alloca ptr, align 8
  %4 = alloca ptr, align 8
  %5 = alloca i32, align 4
  store ptr %0, ptr %4, align 8, !tbaa !30
  store i32 %1, ptr %5, align 4, !tbaa !12
  %6 = load ptr, ptr %4, align 8, !tbaa !30
  %7 = getelementptr inbounds nuw %struct.crypto_ex_data_st, ptr %6, i32 0, i32 1
  %8 = load ptr, ptr %7, align 8, !tbaa !41
  %9 = icmp eq ptr %8, null
  br i1 %9, label %18, label %10

10:                                               ; preds = %2
  %11 = load i32, ptr %5, align 4, !tbaa !12
  %12 = load ptr, ptr %4, align 8, !tbaa !30
  %13 = getelementptr inbounds nuw %struct.crypto_ex_data_st, ptr %12, i32 0, i32 1
  %14 = load ptr, ptr %13, align 8, !tbaa !41
  %15 = call ptr @ossl_check_const_void_sk_type(ptr noundef %14)
  %16 = call i32 @OPENSSL_sk_num(ptr noundef %15)
  %17 = icmp sge i32 %11, %16
  br i1 %17, label %18, label %19

18:                                               ; preds = %10, %2
  store ptr null, ptr %3, align 8
  br label %26

19:                                               ; preds = %10
  %20 = load ptr, ptr %4, align 8, !tbaa !30
  %21 = getelementptr inbounds nuw %struct.crypto_ex_data_st, ptr %20, i32 0, i32 1
  %22 = load ptr, ptr %21, align 8, !tbaa !41
  %23 = call ptr @ossl_check_const_void_sk_type(ptr noundef %22)
  %24 = load i32, ptr %5, align 4, !tbaa !12
  %25 = call ptr @OPENSSL_sk_value(ptr noundef %23, i32 noundef %24)
  store ptr %25, ptr %3, align 8
  br label %26

26:                                               ; preds = %19, %18
  %27 = load ptr, ptr %3, align 8
  ret ptr %27
}

; Function Attrs: inlinehint nounwind uwtable
define internal ptr @sk_EX_CALLBACK_value(ptr noundef %0, i32 noundef %1) #3 {
  %3 = alloca ptr, align 8
  %4 = alloca i32, align 4
  store ptr %0, ptr %3, align 8, !tbaa !21
  store i32 %1, ptr %4, align 4, !tbaa !12
  %5 = load ptr, ptr %3, align 8, !tbaa !21
  %6 = load i32, ptr %4, align 4, !tbaa !12
  %7 = call ptr @OPENSSL_sk_value(ptr noundef %5, i32 noundef %6)
  ret ptr %7
}

; Function Attrs: inlinehint nounwind uwtable
define internal i32 @sk_EX_CALLBACK_num(ptr noundef %0) #3 {
  %2 = alloca ptr, align 8
  store ptr %0, ptr %2, align 8, !tbaa !21
  %3 = load ptr, ptr %2, align 8, !tbaa !21
  %4 = call i32 @OPENSSL_sk_num(ptr noundef %3)
  ret i32 %4
}

; Function Attrs: nounwind uwtable
define internal ptr @get_and_lock(ptr noundef %0, i32 noundef %1, i32 noundef %2) #0 {
  %4 = alloca ptr, align 8
  %5 = alloca ptr, align 8
  %6 = alloca i32, align 4
  %7 = alloca i32, align 4
  %8 = alloca ptr, align 8
  %9 = alloca i32, align 4
  store ptr %0, ptr %5, align 8, !tbaa !8
  store i32 %1, ptr %6, align 4, !tbaa !12
  store i32 %2, ptr %7, align 4, !tbaa !12
  call void @llvm.lifetime.start.p0(i64 8, ptr %8) #4
  %10 = load i32, ptr %6, align 4, !tbaa !12
  %11 = icmp slt i32 %10, 0
  br i1 %11, label %15, label %12

12:                                               ; preds = %3
  %13 = load i32, ptr %6, align 4, !tbaa !12
  %14 = icmp sge i32 %13, 18
  br i1 %14, label %15, label %16

15:                                               ; preds = %12, %3
  call void @ERR_new()
  call void @ERR_set_debug(ptr noundef @.str, i32 noundef 37, ptr noundef @__func__.get_and_lock)
  call void (i32, i32, ptr, ...) @ERR_set_error(i32 noundef 15, i32 noundef 524550, ptr noundef null)
  store ptr null, ptr %4, align 8
  store i32 1, ptr %9, align 4
  br label %48

16:                                               ; preds = %12
  %17 = load ptr, ptr %5, align 8, !tbaa !8
  %18 = getelementptr inbounds nuw %struct.ossl_ex_data_global_st, ptr %17, i32 0, i32 0
  %19 = load ptr, ptr %18, align 8, !tbaa !10
  %20 = icmp eq ptr %19, null
  br i1 %20, label %21, label %22

21:                                               ; preds = %16
  store ptr null, ptr %4, align 8
  store i32 1, ptr %9, align 4
  br label %48

22:                                               ; preds = %16
  %23 = load i32, ptr %7, align 4, !tbaa !12
  %24 = icmp ne i32 %23, 0
  br i1 %24, label %25, label %33

25:                                               ; preds = %22
  %26 = load ptr, ptr %5, align 8, !tbaa !8
  %27 = getelementptr inbounds nuw %struct.ossl_ex_data_global_st, ptr %26, i32 0, i32 0
  %28 = load ptr, ptr %27, align 8, !tbaa !10
  %29 = call i32 @CRYPTO_THREAD_read_lock(ptr noundef %28)
  %30 = icmp ne i32 %29, 0
  br i1 %30, label %32, label %31

31:                                               ; preds = %25
  store ptr null, ptr %4, align 8
  store i32 1, ptr %9, align 4
  br label %48

32:                                               ; preds = %25
  br label %41

33:                                               ; preds = %22
  %34 = load ptr, ptr %5, align 8, !tbaa !8
  %35 = getelementptr inbounds nuw %struct.ossl_ex_data_global_st, ptr %34, i32 0, i32 0
  %36 = load ptr, ptr %35, align 8, !tbaa !10
  %37 = call i32 @CRYPTO_THREAD_write_lock(ptr noundef %36)
  %38 = icmp ne i32 %37, 0
  br i1 %38, label %40, label %39

39:                                               ; preds = %33
  store ptr null, ptr %4, align 8
  store i32 1, ptr %9, align 4
  br label %48

40:                                               ; preds = %33
  br label %41

41:                                               ; preds = %40, %32
  %42 = load ptr, ptr %5, align 8, !tbaa !8
  %43 = getelementptr inbounds nuw %struct.ossl_ex_data_global_st, ptr %42, i32 0, i32 1
  %44 = load i32, ptr %6, align 4, !tbaa !12
  %45 = sext i32 %44 to i64
  %46 = getelementptr inbounds [18 x %struct.ex_callbacks_st], ptr %43, i64 0, i64 %45
  store ptr %46, ptr %8, align 8, !tbaa !14
  %47 = load ptr, ptr %8, align 8, !tbaa !14
  store ptr %47, ptr %4, align 8
  store i32 1, ptr %9, align 4
  br label %48

48:                                               ; preds = %41, %39, %31, %21, %15
  call void @llvm.lifetime.end.p0(i64 8, ptr %8) #4
  %49 = load ptr, ptr %4, align 8
  ret ptr %49
}

; Function Attrs: nounwind uwtable
define void @CRYPTO_free_ex_data(i32 noundef %0, ptr noundef %1, ptr noundef %2) #0 {
  %4 = alloca i32, align 4
  %5 = alloca ptr, align 8
  %6 = alloca ptr, align 8
  %7 = alloca i32, align 4
  %8 = alloca i32, align 4
  %9 = alloca ptr, align 8
  %10 = alloca ptr, align 8
  %11 = alloca ptr, align 8
  %12 = alloca [10 x %struct.ex_callback_entry], align 16
  %13 = alloca ptr, align 8
  %14 = alloca ptr, align 8
  store i32 %0, ptr %4, align 4, !tbaa !12
  store ptr %1, ptr %5, align 8, !tbaa !22
  store ptr %2, ptr %6, align 8, !tbaa !30
  call void @llvm.lifetime.start.p0(i64 4, ptr %7) #4
  call void @llvm.lifetime.start.p0(i64 4, ptr %8) #4
  call void @llvm.lifetime.start.p0(i64 8, ptr %9) #4
  call void @llvm.lifetime.start.p0(i64 8, ptr %10) #4
  call void @llvm.lifetime.start.p0(i64 8, ptr %11) #4
  call void @llvm.lifetime.start.p0(i64 160, ptr %12) #4
  call void @llvm.lifetime.start.p0(i64 8, ptr %13) #4
  store ptr null, ptr %13, align 8, !tbaa !48
  call void @llvm.lifetime.start.p0(i64 8, ptr %14) #4
  %15 = load ptr, ptr %6, align 8, !tbaa !30
  %16 = getelementptr inbounds nuw %struct.crypto_ex_data_st, ptr %15, i32 0, i32 0
  %17 = load ptr, ptr %16, align 8, !tbaa !38
  %18 = call ptr @ossl_lib_ctx_get_ex_data_global(ptr noundef %17)
  store ptr %18, ptr %14, align 8, !tbaa !8
  %19 = load ptr, ptr %14, align 8, !tbaa !8
  %20 = icmp eq ptr %19, null
  br i1 %20, label %21, label %22

21:                                               ; preds = %3
  br label %144

22:                                               ; preds = %3
  %23 = load ptr, ptr %14, align 8, !tbaa !8
  %24 = load i32, ptr %4, align 4, !tbaa !12
  %25 = call ptr @get_and_lock(ptr noundef %23, i32 noundef %24, i32 noundef 1)
  store ptr %25, ptr %9, align 8, !tbaa !14
  %26 = load ptr, ptr %9, align 8, !tbaa !14
  %27 = icmp eq ptr %26, null
  br i1 %27, label %28, label %29

28:                                               ; preds = %22
  br label %144

29:                                               ; preds = %22
  %30 = load ptr, ptr %9, align 8, !tbaa !14
  %31 = getelementptr inbounds nuw %struct.ex_callbacks_st, ptr %30, i32 0, i32 0
  %32 = load ptr, ptr %31, align 8, !tbaa !16
  %33 = call i32 @sk_EX_CALLBACK_num(ptr noundef %32)
  store i32 %33, ptr %7, align 4, !tbaa !12
  %34 = load i32, ptr %7, align 4, !tbaa !12
  %35 = icmp sgt i32 %34, 0
  br i1 %35, label %36, label %76

36:                                               ; preds = %29
  %37 = load i32, ptr %7, align 4, !tbaa !12
  %38 = icmp slt i32 %37, 10
  br i1 %38, label %39, label %41

39:                                               ; preds = %36
  %40 = getelementptr inbounds [10 x %struct.ex_callback_entry], ptr %12, i64 0, i64 0
  store ptr %40, ptr %13, align 8, !tbaa !48
  br label %46

41:                                               ; preds = %36
  %42 = load i32, ptr %7, align 4, !tbaa !12
  %43 = sext i32 %42 to i64
  %44 = mul i64 16, %43
  %45 = call noalias ptr @CRYPTO_malloc(i64 noundef %44, ptr noundef @.str, i32 noundef 389)
  store ptr %45, ptr %13, align 8, !tbaa !48
  br label %46

46:                                               ; preds = %41, %39
  %47 = load ptr, ptr %13, align 8, !tbaa !48
  %48 = icmp ne ptr %47, null
  br i1 %48, label %49, label %75

49:                                               ; preds = %46
  store i32 0, ptr %8, align 4, !tbaa !12
  br label %50

50:                                               ; preds = %71, %49
  %51 = load i32, ptr %8, align 4, !tbaa !12
  %52 = load i32, ptr %7, align 4, !tbaa !12
  %53 = icmp slt i32 %51, %52
  br i1 %53, label %54, label %74

54:                                               ; preds = %50
  %55 = load ptr, ptr %9, align 8, !tbaa !14
  %56 = getelementptr inbounds nuw %struct.ex_callbacks_st, ptr %55, i32 0, i32 0
  %57 = load ptr, ptr %56, align 8, !tbaa !16
  %58 = load i32, ptr %8, align 4, !tbaa !12
  %59 = call ptr @sk_EX_CALLBACK_value(ptr noundef %57, i32 noundef %58)
  %60 = load ptr, ptr %13, align 8, !tbaa !48
  %61 = load i32, ptr %8, align 4, !tbaa !12
  %62 = sext i32 %61 to i64
  %63 = getelementptr inbounds %struct.ex_callback_entry, ptr %60, i64 %62
  %64 = getelementptr inbounds nuw %struct.ex_callback_entry, ptr %63, i32 0, i32 0
  store ptr %59, ptr %64, align 8, !tbaa !50
  %65 = load i32, ptr %8, align 4, !tbaa !12
  %66 = load ptr, ptr %13, align 8, !tbaa !48
  %67 = load i32, ptr %8, align 4, !tbaa !12
  %68 = sext i32 %67 to i64
  %69 = getelementptr inbounds %struct.ex_callback_entry, ptr %66, i64 %68
  %70 = getelementptr inbounds nuw %struct.ex_callback_entry, ptr %69, i32 0, i32 1
  store i32 %65, ptr %70, align 8, !tbaa !52
  br label %71

71:                                               ; preds = %54
  %72 = load i32, ptr %8, align 4, !tbaa !12
  %73 = add nsw i32 %72, 1
  store i32 %73, ptr %8, align 4, !tbaa !12
  br label %50, !llvm.loop !53

74:                                               ; preds = %50
  br label %75

75:                                               ; preds = %74, %46
  br label %76

76:                                               ; preds = %75, %29
  %77 = load ptr, ptr %14, align 8, !tbaa !8
  %78 = getelementptr inbounds nuw %struct.ossl_ex_data_global_st, ptr %77, i32 0, i32 0
  %79 = load ptr, ptr %78, align 8, !tbaa !10
  %80 = call i32 @CRYPTO_THREAD_unlock(ptr noundef %79)
  %81 = load ptr, ptr %13, align 8, !tbaa !48
  %82 = icmp ne ptr %81, null
  br i1 %82, label %83, label %137

83:                                               ; preds = %76
  %84 = load ptr, ptr %13, align 8, !tbaa !48
  %85 = load i32, ptr %7, align 4, !tbaa !12
  %86 = sext i32 %85 to i64
  call void @qsort(ptr noundef %84, i64 noundef %86, i64 noundef 16, ptr noundef @ex_callback_compare)
  store i32 0, ptr %8, align 4, !tbaa !12
  br label %87

87:                                               ; preds = %133, %83
  %88 = load i32, ptr %8, align 4, !tbaa !12
  %89 = load i32, ptr %7, align 4, !tbaa !12
  %90 = icmp slt i32 %88, %89
  br i1 %90, label %91, label %136

91:                                               ; preds = %87
  %92 = load ptr, ptr %13, align 8, !tbaa !48
  %93 = load i32, ptr %8, align 4, !tbaa !12
  %94 = sext i32 %93 to i64
  %95 = getelementptr inbounds %struct.ex_callback_entry, ptr %92, i64 %94
  %96 = getelementptr inbounds nuw %struct.ex_callback_entry, ptr %95, i32 0, i32 0
  %97 = load ptr, ptr %96, align 8, !tbaa !50
  store ptr %97, ptr %11, align 8, !tbaa !23
  %98 = load ptr, ptr %11, align 8, !tbaa !23
  %99 = icmp ne ptr %98, null
  br i1 %99, label %100, label %132

100:                                              ; preds = %91
  %101 = load ptr, ptr %11, align 8, !tbaa !23
  %102 = getelementptr inbounds nuw %struct.ex_callback_st, ptr %101, i32 0, i32 4
  %103 = load ptr, ptr %102, align 8, !tbaa !29
  %104 = icmp ne ptr %103, null
  br i1 %104, label %105, label %132

105:                                              ; preds = %100
  %106 = load ptr, ptr %6, align 8, !tbaa !30
  %107 = load ptr, ptr %13, align 8, !tbaa !48
  %108 = load i32, ptr %8, align 4, !tbaa !12
  %109 = sext i32 %108 to i64
  %110 = getelementptr inbounds %struct.ex_callback_entry, ptr %107, i64 %109
  %111 = getelementptr inbounds nuw %struct.ex_callback_entry, ptr %110, i32 0, i32 1
  %112 = load i32, ptr %111, align 8, !tbaa !52
  %113 = call ptr @CRYPTO_get_ex_data(ptr noundef %106, i32 noundef %112)
  store ptr %113, ptr %10, align 8, !tbaa !22
  %114 = load ptr, ptr %11, align 8, !tbaa !23
  %115 = getelementptr inbounds nuw %struct.ex_callback_st, ptr %114, i32 0, i32 4
  %116 = load ptr, ptr %115, align 8, !tbaa !29
  %117 = load ptr, ptr %5, align 8, !tbaa !22
  %118 = load ptr, ptr %10, align 8, !tbaa !22
  %119 = load ptr, ptr %6, align 8, !tbaa !30
  %120 = load ptr, ptr %13, align 8, !tbaa !48
  %121 = load i32, ptr %8, align 4, !tbaa !12
  %122 = sext i32 %121 to i64
  %123 = getelementptr inbounds %struct.ex_callback_entry, ptr %120, i64 %122
  %124 = getelementptr inbounds nuw %struct.ex_callback_entry, ptr %123, i32 0, i32 1
  %125 = load i32, ptr %124, align 8, !tbaa !52
  %126 = load ptr, ptr %11, align 8, !tbaa !23
  %127 = getelementptr inbounds nuw %struct.ex_callback_st, ptr %126, i32 0, i32 0
  %128 = load i64, ptr %127, align 8, !tbaa !33
  %129 = load ptr, ptr %11, align 8, !tbaa !23
  %130 = getelementptr inbounds nuw %struct.ex_callback_st, ptr %129, i32 0, i32 1
  %131 = load ptr, ptr %130, align 8, !tbaa !34
  call void %116(ptr noundef %117, ptr noundef %118, ptr noundef %119, i32 noundef %125, i64 noundef %128, ptr noundef %131)
  br label %132

132:                                              ; preds = %105, %100, %91
  br label %133

133:                                              ; preds = %132
  %134 = load i32, ptr %8, align 4, !tbaa !12
  %135 = add nsw i32 %134, 1
  store i32 %135, ptr %8, align 4, !tbaa !12
  br label %87, !llvm.loop !54

136:                                              ; preds = %87
  br label %137

137:                                              ; preds = %136, %76
  %138 = load ptr, ptr %13, align 8, !tbaa !48
  %139 = getelementptr inbounds [10 x %struct.ex_callback_entry], ptr %12, i64 0, i64 0
  %140 = icmp ne ptr %138, %139
  br i1 %140, label %141, label %143

141:                                              ; preds = %137
  %142 = load ptr, ptr %13, align 8, !tbaa !48
  call void @CRYPTO_free(ptr noundef %142, ptr noundef @.str, i32 noundef 412)
  br label %143

143:                                              ; preds = %141, %137
  br label %144

144:                                              ; preds = %143, %28, %21
  %145 = load ptr, ptr %6, align 8, !tbaa !30
  %146 = getelementptr inbounds nuw %struct.crypto_ex_data_st, ptr %145, i32 0, i32 1
  %147 = load ptr, ptr %146, align 8, !tbaa !41
  %148 = call ptr @ossl_check_void_sk_type(ptr noundef %147)
  call void @OPENSSL_sk_free(ptr noundef %148)
  %149 = load ptr, ptr %6, align 8, !tbaa !30
  %150 = getelementptr inbounds nuw %struct.crypto_ex_data_st, ptr %149, i32 0, i32 1
  store ptr null, ptr %150, align 8, !tbaa !41
  %151 = load ptr, ptr %6, align 8, !tbaa !30
  %152 = getelementptr inbounds nuw %struct.crypto_ex_data_st, ptr %151, i32 0, i32 0
  store ptr null, ptr %152, align 8, !tbaa !38
  call void @llvm.lifetime.end.p0(i64 8, ptr %14) #4
  call void @llvm.lifetime.end.p0(i64 8, ptr %13) #4
  call void @llvm.lifetime.end.p0(i64 160, ptr %12) #4
  call void @llvm.lifetime.end.p0(i64 8, ptr %11) #4
  call void @llvm.lifetime.end.p0(i64 8, ptr %10) #4
  call void @llvm.lifetime.end.p0(i64 8, ptr %9) #4
  call void @llvm.lifetime.end.p0(i64 4, ptr %8) #4
  call void @llvm.lifetime.end.p0(i64 4, ptr %7) #4
  ret void
}