; Function Attrs: nounwind uwtable
define void @CRYPTO_free_ex_data(i32 noundef %0, ptr noundef %1, ptr noundef %2) local_unnamed_addr #0 {
  %4 = alloca [10 x %struct.ex_callback_entry], align 16
  call void @llvm.lifetime.start.p0(i64 160, ptr nonnull %4) #9
  %5 = load ptr, ptr %2, align 8, !tbaa !22
  %6 = tail call ptr @ossl_lib_ctx_get_ex_data_global(ptr noundef %5) #9
  %7 = icmp eq ptr %6, null
  br i1 %7, label %get_and_lock.exit.thread, label %8

8:                                                ; preds = %3
  %or.cond.i = icmp ugt i32 %0, 17
  br i1 %or.cond.i, label %9, label %10

9:                                                ; preds = %8
  tail call void @ERR_new() #9
  tail call void @ERR_set_debug(ptr noundef nonnull @.str, i32 noundef 37, ptr noundef nonnull @__func__.get_and_lock) #9
  tail call void (i32, i32, ptr, ...) @ERR_set_error(i32 noundef 15, i32 noundef 524550, ptr noundef null) #9
  br label %get_and_lock.exit.thread

10:                                               ; preds = %8
  %11 = load ptr, ptr %6, align 8, !tbaa !3
  %12 = icmp eq ptr %11, null
  br i1 %12, label %get_and_lock.exit.thread, label %13

13:                                               ; preds = %10
  %14 = tail call i32 @CRYPTO_THREAD_read_lock(ptr noundef nonnull %11) #9
  %.not13.i = icmp eq i32 %14, 0
  br i1 %.not13.i, label %get_and_lock.exit.thread, label %15

15:                                               ; preds = %13
  %16 = getelementptr inbounds nuw i8, ptr %6, i64 8
  %17 = zext nneg i32 %0 to i64
  %18 = getelementptr inbounds nuw [18 x %struct.ex_callbacks_st], ptr %16, i64 0, i64 %17
  %19 = load ptr, ptr %18, align 8, !tbaa !8
  %20 = tail call i32 @OPENSSL_sk_num(ptr noundef %19) #9
  %21 = icmp sgt i32 %20, 0
  br i1 %21, label %22, label %.thread61

22:                                               ; preds = %15
  %23 = icmp samesign ult i32 %20, 10
  br i1 %23, label %.lr.ph.preheader, label %24

24:                                               ; preds = %22
  %25 = zext nneg i32 %20 to i64
  %26 = shl nuw nsw i64 %25, 4
  %27 = tail call noalias ptr @CRYPTO_malloc(i64 noundef %26, ptr noundef nonnull @.str, i32 noundef 389) #9
  %.not = icmp eq ptr %27, null
  br i1 %.not, label %.thread61, label %.lr.ph.preheader

.lr.ph.preheader:                                 ; preds = %22, %24
  %.14779 = phi ptr [ %27, %24 ], [ %4, %22 ]
  %wide.trip.count = zext nneg i32 %20 to i64
  br label %.lr.ph

.lr.ph:                                           ; preds = %.lr.ph.preheader, %.lr.ph
  %indvars.iv = phi i64 [ 0, %.lr.ph.preheader ], [ %indvars.iv.next, %.lr.ph ]
  %28 = load ptr, ptr %18, align 8, !tbaa !8
  %29 = trunc nuw nsw i64 %indvars.iv to i32
  %30 = tail call ptr @OPENSSL_sk_value(ptr noundef %28, i32 noundef %29) #9
  %31 = getelementptr inbounds nuw %struct.ex_callback_entry, ptr %.14779, i64 %indvars.iv
  store ptr %30, ptr %31, align 8, !tbaa !35
  %32 = getelementptr inbounds nuw i8, ptr %31, i64 8
  store i32 %29, ptr %32, align 8, !tbaa !37
  %indvars.iv.next = add nuw nsw i64 %indvars.iv, 1
  %exitcond.not = icmp eq i64 %indvars.iv.next, %wide.trip.count
  br i1 %exitcond.not, label %.lr.ph68, label %.lr.ph, !llvm.loop !38

.thread61:                                        ; preds = %15, %24
  %33 = load ptr, ptr %6, align 8, !tbaa !3
  %34 = tail call i32 @CRYPTO_THREAD_unlock(ptr noundef %33) #9
  br label %61

.lr.ph68:                                         ; preds = %.lr.ph
  %35 = load ptr, ptr %6, align 8, !tbaa !3
  %36 = tail call i32 @CRYPTO_THREAD_unlock(ptr noundef %35) #9
  %37 = zext nneg i32 %20 to i64
  call void @qsort(ptr noundef nonnull %.14779, i64 noundef %37, i64 noundef 16, ptr noundef nonnull @ex_callback_compare) #9
  %38 = getelementptr inbounds nuw i8, ptr %2, i64 8
  %smax74 = call i32 @llvm.smax.i32(i32 %20, i32 1)
  %wide.trip.count75 = zext nneg i32 %smax74 to i64
  br label %39

39:                                               ; preds = %.lr.ph68, %60
  %indvars.iv71 = phi i64 [ 0, %.lr.ph68 ], [ %indvars.iv.next72, %60 ]
  %40 = getelementptr inbounds nuw %struct.ex_callback_entry, ptr %.14779, i64 %indvars.iv71
  %41 = load ptr, ptr %40, align 8, !tbaa !35
  %.not54 = icmp eq ptr %41, null
  br i1 %.not54, label %60, label %42

42:                                               ; preds = %39
  %43 = getelementptr inbounds nuw i8, ptr %41, i64 32
  %44 = load ptr, ptr %43, align 8, !tbaa !18
  %.not55 = icmp eq ptr %44, null
  br i1 %.not55, label %60, label %45

45:                                               ; preds = %42
  %46 = getelementptr inbounds nuw i8, ptr %40, i64 8
  %47 = load i32, ptr %46, align 8, !tbaa !37
  %48 = load ptr, ptr %38, align 8, !tbaa !26
  %49 = icmp eq ptr %48, null
  br i1 %49, label %CRYPTO_get_ex_data.exit, label %50

50:                                               ; preds = %45
  %51 = call i32 @OPENSSL_sk_num(ptr noundef nonnull %48) #9
  %.not.i = icmp slt i32 %47, %51
  br i1 %.not.i, label %52, label %CRYPTO_get_ex_data.exit

52:                                               ; preds = %50
  %53 = load ptr, ptr %38, align 8, !tbaa !26
  %54 = call ptr @OPENSSL_sk_value(ptr noundef %53, i32 noundef %47) #9
  br label %CRYPTO_get_ex_data.exit

CRYPTO_get_ex_data.exit:                          ; preds = %45, %50, %52
  %.0.i56 = phi ptr [ %54, %52 ], [ null, %50 ], [ null, %45 ]
  %55 = load ptr, ptr %43, align 8, !tbaa !18
  %56 = load i32, ptr %46, align 8, !tbaa !37
  %57 = load i64, ptr %41, align 8, !tbaa !19
  %58 = getelementptr inbounds nuw i8, ptr %41, i64 8
  %59 = load ptr, ptr %58, align 8, !tbaa !20
  call void %55(ptr noundef %1, ptr noundef %.0.i56, ptr noundef nonnull %2, i32 noundef %56, i64 noundef %57, ptr noundef %59) #9
  br label %60

60:                                               ; preds = %39, %42, %CRYPTO_get_ex_data.exit
  %indvars.iv.next72 = add nuw nsw i64 %indvars.iv71, 1
  %exitcond76.not = icmp eq i64 %indvars.iv.next72, %wide.trip.count75
  br i1 %exitcond76.not, label %._crit_edge69, label %39, !llvm.loop !39

._crit_edge69:                                    ; preds = %60
  %.not53 = icmp eq ptr %.14779, %4
  br i1 %.not53, label %get_and_lock.exit.thread, label %61

61:                                               ; preds = %.thread61, %._crit_edge69
  %.0466064 = phi ptr [ null, %.thread61 ], [ %.14779, %._crit_edge69 ]
  call void @CRYPTO_free(ptr noundef %.0466064, ptr noundef nonnull @.str, i32 noundef 412) #9
  br label %get_and_lock.exit.thread

get_and_lock.exit.thread:                         ; preds = %13, %10, %9, %._crit_edge69, %61, %3
  %62 = getelementptr inbounds nuw i8, ptr %2, i64 8
  %63 = load ptr, ptr %62, align 8, !tbaa !26
  call void @OPENSSL_sk_free(ptr noundef %63) #9
  call void @llvm.memset.p0.i64(ptr noundef nonnull align 8 dereferenceable(16) %2, i8 0, i64 16, i1 false)
  call void @llvm.lifetime.end.p0(i64 160, ptr nonnull %4) #9
  ret void
}